target datalayout = "e-m:e-p270:32:32-p271:32:32-p272:64:64-i64:64-i128:128-f80:128-n8:16:32:64-S128"
target triple = "x86_64-unknown-linux-gnu"

%struct.QTailQLink = type { ptr, ptr }
%struct.MSGUID = type { i32, i16, i16, [8 x i8] }
%struct.QemuUUID = type { %union.anon }
%union.anon = type { %struct.anon }
%struct.anon = type { i32, i16, i16, i8, i8, [6 x i8] }
%struct.BDRVVHDXState = type <{ %struct.CoMutex, i32, [4 x i8], [2 x ptr], %struct.VHDXRegionTableHeader, %struct.VHDXRegionTableEntry, %struct.VHDXRegionTableEntry, %struct.VHDXMetadataTableHeader, %struct.VHDXMetadataEntries, %struct.VHDXFileParameters, [2 x i8], i32, i32, i32, i32, [4 x i8], i64, i32, i32, i64, i32, i32, i32, [4 x i8], ptr, i64, i8, %struct.MSGUID, [7 x i8], %struct.VHDXLogEntries, %struct.VHDXParentLocatorHeader, [4 x i8], ptr, ptr, i8, [7 x i8], %struct.anon.1 }>
%struct.CoMutex = type { i32, ptr, %struct.anon.0, %struct.anon.0, i32, i32, ptr }
%struct.anon.0 = type { ptr }
%struct.VHDXRegionTableHeader = type { i32, i32, i32, i32 }
%struct.VHDXRegionTableEntry = type { %struct.MSGUID, i64, i32, i32 }
%struct.VHDXMetadataTableHeader = type { i64, i16, i16, [5 x i32] }
%struct.VHDXMetadataEntries = type <{ %struct.VHDXMetadataTableEntry, %struct.VHDXMetadataTableEntry, %struct.VHDXMetadataTableEntry, %struct.VHDXMetadataTableEntry, %struct.VHDXMetadataTableEntry, %struct.VHDXMetadataTableEntry, i16 }>
%struct.VHDXMetadataTableEntry = type { %struct.MSGUID, i32, i32, i32, i32 }
%struct.VHDXFileParameters = type { i32, i32 }
%struct.VHDXLogEntries = type { i64, i64, i32, i32, ptr, ptr, i64, i32 }
%struct.VHDXParentLocatorHeader = type { %struct.MSGUID, i16, i16 }
%struct.anon.1 = type { ptr }
%struct.VHDXHeader = type { i32, i32, i64, %struct.MSGUID, %struct.MSGUID, %struct.MSGUID, i16, i16, i32, i64 }
%struct.BlockDriverState = type { i32, i8, i8, i8, i8, i8, ptr, ptr, ptr, %struct.anon.2, i8, [4096 x i8], [4096 x i8], [4096 x i8], [16 x i8], ptr, [4096 x i8], %struct.BlockLimits, i32, i32, i32, i32, [32 x i8], %union.anon.3, %union.anon.4, %union.anon.5, i32, [16 x %struct.anon.6], ptr, %struct.anon.7, ptr, ptr, %struct.anon.8, ptr, ptr, i32, ptr, i64, i64, %struct.QemuMutex, %struct.anon.9, %struct.Stat64, i32, i32, i32, i32, i32, i32, %struct.QemuMutex, %struct.anon.10, %struct.CoQueue, i8, i32, i8, %struct.CoMutex, ptr, ptr }
%struct.anon.2 = type { ptr }
%struct.BlockLimits = type { i32, i64, i32, i64, i32, i32, i32, i64, i32, i64, i64, i32, i8, i32, i32, i32, i32, i32, i32, i32 }
%union.anon.3 = type { %struct.QTailQLink }
%union.anon.4 = type { %struct.QTailQLink }
%union.anon.5 = type { %struct.QTailQLink }
%struct.anon.6 = type { ptr }
%struct.anon.7 = type { ptr }
%struct.anon.8 = type { ptr }
%struct.anon.9 = type { ptr }
%struct.Stat64 = type { i64 }
%struct.QemuMutex = type { %union.pthread_mutex_t, i8 }
%union.pthread_mutex_t = type { %struct.__pthread_mutex_s }
%struct.__pthread_mutex_s = type { i32, i32, i32, i32, i32, i16, i16, %struct.__pthread_internal_list }
%struct.__pthread_internal_list = type { ptr, ptr }
%struct.anon.10 = type { ptr }
%struct.CoQueue = type { %struct.anon.11 }
%struct.anon.11 = type { ptr, ptr }

@.str.1 = private unnamed_addr constant [21 x i8] c"../qemu/block/vhdx.c\00", align 1
@.str.4 = private unnamed_addr constant [13 x i8] c"guid != NULL\00", align 1
@__PRETTY_FUNCTION__.vhdx_guid_generate = private unnamed_addr constant [34 x i8] c"void vhdx_guid_generate(MSGUID *)\00", align 1

; Function Attrs: nounwind sspstrong uwtable
define dso_local void @vhdx_guid_generate(ptr noundef %guid) #0 {
entry:
  %guid.addr = alloca ptr, align 8
  %uuid = alloca %struct.QemuUUID, align 4
  store ptr %guid, ptr %guid.addr, align 8
  %0 = load ptr, ptr %guid.addr, align 8
  %cmp = icmp ne ptr %0, null
  br i1 %cmp, label %if.then, label %if.else

if.then:                                          ; preds = %entry
  br label %if.end

if.else:                                          ; preds = %entry
  call void @__assert_fail(ptr noundef @.str.4, ptr noundef @.str.1, i32 noundef 224, ptr noundef @__PRETTY_FUNCTION__.vhdx_guid_generate) #10
  unreachable

if.end:                                           ; preds = %if.then
  call void @qemu_uuid_generate(ptr noundef %uuid)
  %1 = load ptr, ptr %guid.addr, align 8
  call void @llvm.memcpy.p0.p0.i64(ptr align 1 %1, ptr align 4 %uuid, i64 16, i1 false)
  ret void
}

; Function Attrs: nounwind sspstrong uwtable
define internal i32 @vhdx_update_header(ptr noundef %bs, ptr noundef %s, i1 noundef zeroext %generate_data_write_guid, ptr noundef %log_guid) #0 {
entry:
  %bs.addr = alloca ptr, align 8
  %s.addr = alloca ptr, align 8
  %generate_data_write_guid.addr = alloca i8, align 1
  %log_guid.addr = alloca ptr, align 8
  %ret = alloca i32, align 4
  %hdr_idx = alloca i32, align 4
  %header_offset = alloca i64, align 8
  %active_header = alloca ptr, align 8
  %inactive_header = alloca ptr, align 8
  store ptr %bs, ptr %bs.addr, align 8
  store ptr %s, ptr %s.addr, align 8
  %frombool = zext i1 %generate_data_write_guid to i8
  store i8 %frombool, ptr %generate_data_write_guid.addr, align 1
  store ptr %log_guid, ptr %log_guid.addr, align 8
  store i32 0, ptr %ret, align 4
  store i32 0, ptr %hdr_idx, align 4
  store i64 65536, ptr %header_offset, align 8
  %0 = load ptr, ptr %s.addr, align 8
  %curr_header = getelementptr inbounds %struct.BDRVVHDXState, ptr %0, i32 0, i32 1
  %1 = load i32, ptr %curr_header, align 8
  %cmp = icmp eq i32 %1, 0
  br i1 %cmp, label %if.then, label %if.end

if.then:                                          ; preds = %entry
  store i32 1, ptr %hdr_idx, align 4
  store i64 131072, ptr %header_offset, align 8
  br label %if.end

if.end:                                           ; preds = %if.then, %entry
  %2 = load ptr, ptr %s.addr, align 8
  %headers = getelementptr inbounds %struct.BDRVVHDXState, ptr %2, i32 0, i32 3
  %3 = load ptr, ptr %s.addr, align 8
  %curr_header1 = getelementptr inbounds %struct.BDRVVHDXState, ptr %3, i32 0, i32 1
  %4 = load i32, ptr %curr_header1, align 8
  %idxprom = sext i32 %4 to i64
  %arrayidx = getelementptr [2 x ptr], ptr %headers, i64 0, i64 %idxprom
  %5 = load ptr, ptr %arrayidx, align 8
  store ptr %5, ptr %active_header, align 8
  %6 = load ptr, ptr %s.addr, align 8
  %headers2 = getelementptr inbounds %struct.BDRVVHDXState, ptr %6, i32 0, i32 3
  %7 = load i32, ptr %hdr_idx, align 4
  %idxprom3 = sext i32 %7 to i64
  %arrayidx4 = getelementptr [2 x ptr], ptr %headers2, i64 0, i64 %idxprom3
  %8 = load ptr, ptr %arrayidx4, align 8
  store ptr %8, ptr %inactive_header, align 8
  %9 = load ptr, ptr %active_header, align 8
  %sequence_number = getelementptr inbounds %struct.VHDXHeader, ptr %9, i32 0, i32 2
  %10 = load i64, ptr %sequence_number, align 1
  %add = add i64 %10, 1
  %11 = load ptr, ptr %inactive_header, align 8
  %sequence_number5 = getelementptr inbounds %struct.VHDXHeader, ptr %11, i32 0, i32 2
  store i64 %add, ptr %sequence_number5, align 1
  %12 = load ptr, ptr %inactive_header, align 8
  %file_write_guid = getelementptr inbounds %struct.VHDXHeader, ptr %12, i32 0, i32 3
  %13 = load ptr, ptr %s.addr, align 8
  %session_guid = getelementptr inbounds %struct.BDRVVHDXState, ptr %13, i32 0, i32 27
  call void @llvm.memcpy.p0.p0.i64(ptr align 1 %file_write_guid, ptr align 1 %session_guid, i64 16, i1 false)
  %14 = load i8, ptr %generate_data_write_guid.addr, align 1
  %tobool = trunc i8 %14 to i1
  br i1 %tobool, label %if.then6, label %if.end7

if.then6:                                         ; preds = %if.end
  %15 = load ptr, ptr %inactive_header, align 8
  %data_write_guid = getelementptr inbounds %struct.VHDXHeader, ptr %15, i32 0, i32 4
  call void @vhdx_guid_generate(ptr noundef %data_write_guid)
  br label %if.end7

if.end7:                                          ; preds = %if.then6, %if.end
  %16 = load ptr, ptr %log_guid.addr, align 8
  %tobool8 = icmp ne ptr %16, null
  br i1 %tobool8, label %if.then9, label %if.end11

if.then9:                                         ; preds = %if.end7
  %17 = load ptr, ptr %inactive_header, align 8
  %log_guid10 = getelementptr inbounds %struct.VHDXHeader, ptr %17, i32 0, i32 5
  %18 = load ptr, ptr %log_guid.addr, align 8
  call void @llvm.memcpy.p0.p0.i64(ptr align 1 %log_guid10, ptr align 1 %18, i64 16, i1 false)
  br label %if.end11

if.end11:                                         ; preds = %if.then9, %if.end7
  %19 = load ptr, ptr %bs.addr, align 8
  %file = getelementptr inbounds %struct.BlockDriverState, ptr %19, i32 0, i32 31
  %20 = load ptr, ptr %file, align 8
  %21 = load ptr, ptr %inactive_header, align 8
  %22 = load i64, ptr %header_offset, align 8
  %call = call i32 @vhdx_write_header(ptr noundef %20, ptr noundef %21, i64 noundef %22, i1 noundef zeroext true)
  store i32 %call, ptr %ret, align 4
  %23 = load i32, ptr %ret, align 4
  %cmp12 = icmp slt i32 %23, 0
  br i1 %cmp12, label %if.then13, label %if.end14

if.then13:                                        ; preds = %if.end11
  br label %exit

if.end14:                                         ; preds = %if.end11
  %24 = load i32, ptr %hdr_idx, align 4
  %25 = load ptr, ptr %s.addr, align 8
  %curr_header15 = getelementptr inbounds %struct.BDRVVHDXState, ptr %25, i32 0, i32 1
  store i32 %24, ptr %curr_header15, align 8
  br label %exit

exit:                                             ; preds = %if.end14, %if.then13
  %26 = load i32, ptr %ret, align 4
  ret i32 %26
}

; Function Attrs: nounwind sspstrong uwtable
define dso_local i32 @vhdx_update_headers(ptr noundef %bs, ptr noundef %s, i1 noundef zeroext %generate_data_write_guid, ptr noundef %log_guid) #0 {
entry:
  %retval = alloca i32, align 4
  %bs.addr = alloca ptr, align 8
  %s.addr = alloca ptr, align 8
  %generate_data_write_guid.addr = alloca i8, align 1
  %log_guid.addr = alloca ptr, align 8
  %ret = alloca i32, align 4
  store ptr %bs, ptr %bs.addr, align 8
  store ptr %s, ptr %s.addr, align 8
  %frombool = zext i1 %generate_data_write_guid to i8
  store i8 %frombool, ptr %generate_data_write_guid.addr, align 1
  store ptr %log_guid, ptr %log_guid.addr, align 8
  %0 = load ptr, ptr %bs.addr, align 8
  %1 = load ptr, ptr %s.addr, align 8
  %2 = load i8, ptr %generate_data_write_guid.addr, align 1
  %tobool = trunc i8 %2 to i1
  %3 = load ptr, ptr %log_guid.addr, align 8
  %call = call i32 @vhdx_update_header(ptr noundef %0, ptr noundef %1, i1 noundef zeroext %tobool, ptr noundef %3)
  store i32 %call, ptr %ret, align 4
  %4 = load i32, ptr %ret, align 4
  %cmp = icmp slt i32 %4, 0
  br i1 %cmp, label %if.then, label %if.end

if.then:                                          ; preds = %entry
  %5 = load i32, ptr %ret, align 4
  store i32 %5, ptr %retval, align 4
  br label %return

if.end:                                           ; preds = %entry
  %6 = load ptr, ptr %bs.addr, align 8
  %7 = load ptr, ptr %s.addr, align 8
  %8 = load i8, ptr %generate_data_write_guid.addr, align 1
  %tobool1 = trunc i8 %8 to i1
  %9 = load ptr, ptr %log_guid.addr, align 8
  %call2 = call i32 @vhdx_update_header(ptr noundef %6, ptr noundef %7, i1 noundef zeroext %tobool1, ptr noundef %9)
  store i32 %call2, ptr %retval, align 4
  br label %return

return:                                           ; preds = %if.end, %if.then
  %10 = load i32, ptr %retval, align 4
  ret i32 %10
}