; Function Attrs: nounwind sspstrong uwtable
define dso_local i32 @vhdx_update_headers(ptr noundef readonly captures(none) %bs, ptr noundef captures(none) %s, i1 noundef zeroext %generate_data_write_guid, ptr noundef readonly %log_guid) local_unnamed_addr #0 {
entry:
  %uuid.i.i6 = alloca %struct.QemuUUID, align 4
  %uuid.i.i = alloca %struct.QemuUUID, align 4
  %curr_header.i = getelementptr inbounds nuw i8, ptr %s, i64 48
  %0 = load i32, ptr %curr_header.i, align 8
  %cmp.i = icmp eq i32 %0, 0
  %spec.select.i = select i1 %cmp.i, i64 131072, i64 65536
  %spec.select13.i = zext i1 %cmp.i to i32
  %headers.i = getelementptr inbounds nuw i8, ptr %s, i64 56
  %idxprom.i = sext i32 %0 to i64
  %arrayidx.i = getelementptr [2 x ptr], ptr %headers.i, i64 0, i64 %idxprom.i
  %1 = load ptr, ptr %arrayidx.i, align 8
  %idxprom3.i = zext i1 %cmp.i to i64
  %arrayidx4.i = getelementptr [2 x ptr], ptr %headers.i, i64 0, i64 %idxprom3.i
  %2 = load ptr, ptr %arrayidx4.i, align 8
  %sequence_number.i = getelementptr inbounds nuw i8, ptr %1, i64 8
  %3 = load i64, ptr %sequence_number.i, align 1
  %add.i = add i64 %3, 1
  %sequence_number5.i = getelementptr inbounds nuw i8, ptr %2, i64 8
  store i64 %add.i, ptr %sequence_number5.i, align 1
  %file_write_guid.i = getelementptr inbounds nuw i8, ptr %2, i64 16
  %session_guid.i = getelementptr inbounds nuw i8, ptr %s, i64 465
  tail call void @llvm.memcpy.p0.p0.i64(ptr noundef nonnull align 1 dereferenceable(16) %file_write_guid.i, ptr noundef nonnull align 1 dereferenceable(16) %session_guid.i, i64 16, i1 false)
  br i1 %generate_data_write_guid, label %if.then6.i, label %if.end7.i

if.then6.i:                                       ; preds = %entry
  %data_write_guid.i = getelementptr inbounds nuw i8, ptr %2, i64 32
  call void @llvm.lifetime.start.p0(i64 16, ptr nonnull %uuid.i.i)
  call void @qemu_uuid_generate(ptr noundef nonnull %uuid.i.i) #17
  call void @llvm.memcpy.p0.p0.i64(ptr noundef nonnull align 1 dereferenceable(16) %data_write_guid.i, ptr noundef nonnull align 4 dereferenceable(16) %uuid.i.i, i64 16, i1 false)
  call void @llvm.lifetime.end.p0(i64 16, ptr nonnull %uuid.i.i)
  br label %if.end7.i

if.end7.i:                                        ; preds = %if.then6.i, %entry
  %tobool8.not.i = icmp eq ptr %log_guid, null
  br i1 %tobool8.not.i, label %if.end11.i, label %if.then9.i

if.then9.i:                                       ; preds = %if.end7.i
  %log_guid10.i = getelementptr inbounds nuw i8, ptr %2, i64 48
  call void @llvm.memcpy.p0.p0.i64(ptr noundef nonnull align 1 dereferenceable(16) %log_guid10.i, ptr noundef nonnull readonly align 1 dereferenceable(16) %log_guid, i64 16, i1 false)
  br label %if.end11.i

if.end11.i:                                       ; preds = %if.then9.i, %if.end7.i
  %file.i = getelementptr inbounds nuw i8, ptr %bs, i64 16840
  %4 = load ptr, ptr %file.i, align 8
  %call.i = call fastcc i32 @vhdx_write_header(ptr noundef %4, ptr noundef nonnull %2, i64 noundef %spec.select.i, i1 noundef zeroext true)
  %cmp12.i = icmp slt i32 %call.i, 0
  br i1 %cmp12.i, label %return, label %if.end

if.end:                                           ; preds = %if.end11.i
  store i32 %spec.select13.i, ptr %curr_header.i, align 8
  %cmp.i8 = xor i1 %cmp.i, true
  %spec.select.i9 = select i1 %cmp.i, i64 65536, i64 131072
  %spec.select13.i10 = zext i1 %cmp.i8 to i32
  %5 = load ptr, ptr %arrayidx4.i, align 8
  %idxprom3.i14 = zext i1 %cmp.i8 to i64
  %arrayidx4.i15 = getelementptr [2 x ptr], ptr %headers.i, i64 0, i64 %idxprom3.i14
  %6 = load ptr, ptr %arrayidx4.i15, align 8
  %sequence_number.i16 = getelementptr inbounds nuw i8, ptr %5, i64 8
  %7 = load i64, ptr %sequence_number.i16, align 1
  %add.i17 = add i64 %7, 1
  %sequence_number5.i18 = getelementptr inbounds nuw i8, ptr %6, i64 8
  store i64 %add.i17, ptr %sequence_number5.i18, align 1
  %file_write_guid.i19 = getelementptr inbounds nuw i8, ptr %6, i64 16
  call void @llvm.memcpy.p0.p0.i64(ptr noundef nonnull align 1 dereferenceable(16) %file_write_guid.i19, ptr noundef nonnull align 1 dereferenceable(16) %session_guid.i, i64 16, i1 false)
  br i1 %generate_data_write_guid, label %if.then6.i30, label %if.end7.i21

if.then6.i30:                                     ; preds = %if.end
  %data_write_guid.i31 = getelementptr inbounds nuw i8, ptr %6, i64 32
  call void @llvm.lifetime.start.p0(i64 16, ptr nonnull %uuid.i.i6)
  call void @qemu_uuid_generate(ptr noundef nonnull %uuid.i.i6) #17
  call void @llvm.memcpy.p0.p0.i64(ptr noundef nonnull align 1 dereferenceable(16) %data_write_guid.i31, ptr noundef nonnull align 4 dereferenceable(16) %uuid.i.i6, i64 16, i1 false)
  call void @llvm.lifetime.end.p0(i64 16, ptr nonnull %uuid.i.i6)
  br label %if.end7.i21

if.end7.i21:                                      ; preds = %if.then6.i30, %if.end
  br i1 %tobool8.not.i, label %if.end11.i25, label %if.then9.i23

if.then9.i23:                                     ; preds = %if.end7.i21
  %log_guid10.i24 = getelementptr inbounds nuw i8, ptr %6, i64 48
  call void @llvm.memcpy.p0.p0.i64(ptr noundef nonnull align 1 dereferenceable(16) %log_guid10.i24, ptr noundef nonnull readonly align 1 dereferenceable(16) %log_guid, i64 16, i1 false)
  br label %if.end11.i25

if.end11.i25:                                     ; preds = %if.then9.i23, %if.end7.i21
  %8 = load ptr, ptr %file.i, align 8
  %call.i27 = call fastcc i32 @vhdx_write_header(ptr noundef %8, ptr noundef nonnull %6, i64 noundef %spec.select.i9, i1 noundef zeroext true)
  %cmp12.i28 = icmp slt i32 %call.i27, 0
  br i1 %cmp12.i28, label %return, label %if.end14.i29

if.end14.i29:                                     ; preds = %if.end11.i25
  store i32 %spec.select13.i10, ptr %curr_header.i, align 8
  br label %return

return:                                           ; preds = %if.end11.i, %if.end14.i29, %if.end11.i25
  %retval.0 = phi i32 [ %call.i27, %if.end11.i25 ], [ %call.i27, %if.end14.i29 ], [ %call.i, %if.end11.i ]
  ret i32 %retval.0
}